; Function Attrs: mustprogress nofree norecurse nosync nounwind willreturn memory(argmem: read) uwtable
define hidden noundef range(i32 -2147483648, 2147483647) i32 @_ZNK2cv5gimpl16FluidFilterAgent11firstWindowEm(ptr noundef nonnull readonly align 8 captures(none) dereferenceable(364) %0, i64 %1) unnamed_addr #9 align 2 {
  %3 = getelementptr inbounds nuw i8, ptr %0, i64 12
  %4 = getelementptr inbounds nuw i8, ptr %0, i64 352
  %5 = load i32, ptr %4, align 8, !tbaa !186
  %6 = getelementptr inbounds nuw i8, ptr %0, i64 356
  %7 = load i32, ptr %6, align 4, !tbaa !154
  %8 = sub nsw i32 %5, %7
  %9 = load i32, ptr %3, align 4, !tbaa !23
  %.sroa.speculated = tail call i32 @llvm.smin.i32(i32 %8, i32 %9)
  %10 = getelementptr inbounds nuw i8, ptr %0, i64 360
  %11 = load i32, ptr %10, align 8, !tbaa !187
  %12 = add i32 %.sroa.speculated, -1
  %13 = add i32 %12, %11
  ret i32 %13
}